; Function Attrs: nounwind uwtable
define void @Sim_UtilInfoDetectDiffs(ptr noundef readonly captures(none) %0, ptr noundef readonly captures(none) %1, i32 noundef %2, ptr noundef captures(none) initializes((4, 8)) %3) local_unnamed_addr #7 {
  %5 = getelementptr inbounds nuw i8, ptr %3, i64 4
  store i32 0, ptr %5, align 4, !tbaa !16
  %6 = icmp sgt i32 %2, 0
  br i1 %6, label %.lr.ph, label %._crit_edge

.lr.ph:                                           ; preds = %4
  %.phi.trans.insert.i = getelementptr inbounds nuw i8, ptr %3, i64 8
  %wide.trip.count = zext nneg i32 %2 to i64
  br label %7

7:                                                ; preds = %.lr.ph, %.loopexit
  %indvars.iv = phi i64 [ 0, %.lr.ph ], [ %indvars.iv.next, %.loopexit ]
  %8 = getelementptr inbounds nuw i32, ptr %1, i64 %indvars.iv
  %9 = load i32, ptr %8, align 4, !tbaa !14
  %10 = getelementptr inbounds nuw i32, ptr %0, i64 %indvars.iv
  %11 = load i32, ptr %10, align 4, !tbaa !14
  %12 = xor i32 %11, %9
  %.not = icmp eq i32 %9, %11
  br i1 %.not, label %.loopexit, label %.preheader

.preheader:                                       ; preds = %7
  %indvars.iv.tr = trunc i64 %indvars.iv to i32
  %13 = shl i32 %indvars.iv.tr, 5
  br label %14

14:                                               ; preds = %.preheader, %47
  %.01417 = phi i32 [ 0, %.preheader ], [ %48, %47 ]
  %15 = shl nuw i32 1, %.01417
  %16 = and i32 %15, %12
  %.not16 = icmp eq i32 %16, 0
  br i1 %.not16, label %47, label %17

17:                                               ; preds = %14
  %18 = add nuw nsw i32 %.01417, %13
  %19 = load i32, ptr %5, align 4, !tbaa !16
  %20 = load i32, ptr %3, align 8, !tbaa !19
  %21 = icmp eq i32 %19, %20
  br i1 %21, label %22, label %.Vec_IntGrow.exit10_crit_edge.i

.Vec_IntGrow.exit10_crit_edge.i:                  ; preds = %17
  %.pre.i = load ptr, ptr %.phi.trans.insert.i, align 8, !tbaa !20
  br label %Vec_IntPush.exit

22:                                               ; preds = %17
  %23 = icmp slt i32 %19, 16
  br i1 %23, label %24, label %31

24:                                               ; preds = %22
  %25 = load ptr, ptr %.phi.trans.insert.i, align 8, !tbaa !20
  %.not9.i.i = icmp eq ptr %25, null
  br i1 %.not9.i.i, label %28, label %26

26:                                               ; preds = %24
  %27 = tail call dereferenceable_or_null(64) ptr @realloc(ptr noundef nonnull %25, i64 noundef 64) #19
  br label %Vec_IntGrow.exit.i

28:                                               ; preds = %24
  %29 = tail call noalias dereferenceable_or_null(64) ptr @malloc(i64 noundef 64) #17
  br label %Vec_IntGrow.exit.i

Vec_IntGrow.exit.i:                               ; preds = %28, %26
  %30 = phi ptr [ %27, %26 ], [ %29, %28 ]
  store ptr %30, ptr %.phi.trans.insert.i, align 8, !tbaa !20
  store i32 16, ptr %3, align 8, !tbaa !19
  br label %Vec_IntPush.exit

31:                                               ; preds = %22
  %32 = shl nuw nsw i32 %19, 1
  %33 = load ptr, ptr %.phi.trans.insert.i, align 8, !tbaa !20
  %.not9.i9.i = icmp eq ptr %33, null
  %34 = zext nneg i32 %32 to i64
  %35 = shl nuw nsw i64 %34, 2
  br i1 %.not9.i9.i, label %38, label %36

36:                                               ; preds = %31
  %37 = tail call ptr @realloc(ptr noundef nonnull %33, i64 noundef %35) #19
  br label %40

38:                                               ; preds = %31
  %39 = tail call noalias ptr @malloc(i64 noundef %35) #17
  br label %40

40:                                               ; preds = %38, %36
  %41 = phi ptr [ %37, %36 ], [ %39, %38 ]
  store ptr %41, ptr %.phi.trans.insert.i, align 8, !tbaa !20
  store i32 %32, ptr %3, align 8, !tbaa !19
  br label %Vec_IntPush.exit

Vec_IntPush.exit:                                 ; preds = %.Vec_IntGrow.exit10_crit_edge.i, %Vec_IntGrow.exit.i, %40
  %42 = phi ptr [ %.pre.i, %.Vec_IntGrow.exit10_crit_edge.i ], [ %41, %40 ], [ %30, %Vec_IntGrow.exit.i ]
  %43 = load i32, ptr %5, align 4, !tbaa !16
  %44 = add nsw i32 %43, 1
  store i32 %44, ptr %5, align 4, !tbaa !16
  %45 = sext i32 %43 to i64
  %46 = getelementptr inbounds i32, ptr %42, i64 %45
  store i32 %18, ptr %46, align 4, !tbaa !14
  br label %47

47:                                               ; preds = %14, %Vec_IntPush.exit
  %48 = add nuw nsw i32 %.01417, 1
  %exitcond.not = icmp eq i32 %48, 32
  br i1 %exitcond.not, label %.loopexit, label %14, !llvm.loop !21

.loopexit:                                        ; preds = %47, %7
  %indvars.iv.next = add nuw nsw i64 %indvars.iv, 1
  %exitcond20.not = icmp eq i64 %indvars.iv.next, %wide.trip.count
  br i1 %exitcond20.not, label %._crit_edge, label %7, !llvm.loop !22

._crit_edge:                                      ; preds = %.loopexit, %4
  ret void
}